target datalayout = "e-m:e-p270:32:32-p271:32:32-p272:64:64-i64:64-i128:128-f80:128-n8:16:32:64-S128"
target triple = "x86_64-pc-linux-gnu"

%struct.Gia_Man_t_ = type { ptr, ptr, i32, i32, i32, i32, ptr, ptr, i32, i32, i32, ptr, ptr, %struct.Vec_Int_t_, %struct.Vec_Int_t_, i32, i32, i32, %struct.Vec_Int_t_, ptr, ptr, ptr, i32, i32, i32, i32, ptr, ptr, ptr, ptr, ptr, i32, i32, ptr, i32, ptr, ptr, ptr, ptr, ptr, ptr, ptr, ptr, ptr, ptr, ptr, ptr, ptr, ptr, ptr, ptr, ptr, ptr, %struct.Vec_Int_t_, %struct.Vec_Int_t_, ptr, ptr, ptr, ptr, ptr, ptr, ptr, ptr, ptr, ptr, ptr, ptr, ptr, ptr, ptr, ptr, ptr, ptr, ptr, ptr, ptr, i32, float, float, ptr, ptr, i32, ptr, ptr, ptr, ptr, ptr, ptr, ptr, ptr, ptr, ptr, ptr, ptr, ptr, ptr, ptr, i64, i64, ptr, ptr, i32, i32, i32, i32, i32, i32, i32, i32, i32, i32, i32, i32, ptr, ptr, ptr, ptr, ptr, ptr, ptr, ptr, i32, i32, i32, ptr, i32, i32, ptr, ptr, ptr, ptr, ptr, ptr, i32, i32, ptr, %struct.Vec_Int_t_, %struct.Vec_Int_t_, %struct.Vec_Int_t_, ptr, ptr, ptr }
%struct.Vec_Int_t_ = type { i32, i32, ptr }
%struct.Jf_Par_t_ = type { i32, i32, i32, i32, i32, i32, i32, i32, i32, i32, i32, i32, i32, i32, i32, i32, i32, i32, i32, i32, i32, i32, i32, i32, i32, i32, i32, i32, i32, i32, i32, i32, i32, i32, i32, i32, i32, i32, i32, i32, i64, i64, i64, i64, i64, i64, i64, i64, i32, float, float, float, float, ptr, ptr }
%struct.Dch_Pars_t_ = type { i32, i32, i32, i32, i32, i32, i32, i32, i32, i32, i32, i32, i32, i32, i64, i32, i32 }

; Function Attrs: nounwind uwtable
define internal i32 @Vec_IntSize(ptr noundef %0) #0 {
  %2 = alloca ptr, align 8
  store ptr %0, ptr %2, align 8
  %3 = load ptr, ptr %2, align 8
  %4 = getelementptr inbounds %struct.Vec_Int_t_, ptr %3, i32 0, i32 1
  %5 = load i32, ptr %4, align 4
  ret i32 %5
}

; Function Attrs: nounwind uwtable
define internal ptr @Abc_UtilStrsav(ptr noundef %0) #0 {
  %2 = alloca ptr, align 8
  store ptr %0, ptr %2, align 8
  %3 = load ptr, ptr %2, align 8
  %4 = icmp ne ptr %3, null
  br i1 %4, label %5, label %13

5:                                                ; preds = %1
  %6 = load ptr, ptr %2, align 8
  %7 = call i64 @strlen(ptr noundef %6) #11
  %8 = add i64 %7, 1
  %9 = mul i64 1, %8
  %10 = call noalias ptr @malloc(i64 noundef %9) #10
  %11 = load ptr, ptr %2, align 8
  %12 = call ptr @strcpy(ptr noundef %10, ptr noundef %11) #9
  br label %14

13:                                               ; preds = %1
  br label %14

14:                                               ; preds = %13, %5
  %15 = phi ptr [ %12, %5 ], [ null, %13 ]
  ret ptr %15
}

; Function Attrs: nounwind uwtable
define internal i32 @Gia_ManBufNum(ptr noundef %0) #0 {
  %2 = alloca ptr, align 8
  store ptr %0, ptr %2, align 8
  %3 = load ptr, ptr %2, align 8
  %4 = getelementptr inbounds %struct.Gia_Man_t_, ptr %3, i32 0, i32 10
  %5 = load i32, ptr %4, align 8
  ret i32 %5
}

; Function Attrs: nounwind uwtable
define internal i32 @Gia_ManHasMapping(ptr noundef %0) #0 {
  %2 = alloca ptr, align 8
  store ptr %0, ptr %2, align 8
  %3 = load ptr, ptr %2, align 8
  %4 = getelementptr inbounds %struct.Gia_Man_t_, ptr %3, i32 0, i32 37
  %5 = load ptr, ptr %4, align 8
  %6 = icmp ne ptr %5, null
  %7 = zext i1 %6 to i32
  ret i32 %7
}

; Function Attrs: nounwind uwtable
define internal i32 @Gia_ManAndNum(ptr noundef %0) #0 {
  %2 = alloca ptr, align 8
  store ptr %0, ptr %2, align 8
  %3 = load ptr, ptr %2, align 8
  %4 = getelementptr inbounds %struct.Gia_Man_t_, ptr %3, i32 0, i32 4
  %5 = load i32, ptr %4, align 8
  %6 = load ptr, ptr %2, align 8
  %7 = getelementptr inbounds %struct.Gia_Man_t_, ptr %6, i32 0, i32 11
  %8 = load ptr, ptr %7, align 8
  %9 = call i32 @Vec_IntSize(ptr noundef %8)
  %10 = sub nsw i32 %5, %9
  %11 = load ptr, ptr %2, align 8
  %12 = getelementptr inbounds %struct.Gia_Man_t_, ptr %11, i32 0, i32 12
  %13 = load ptr, ptr %12, align 8
  %14 = call i32 @Vec_IntSize(ptr noundef %13)
  %15 = sub nsw i32 %10, %14
  %16 = sub nsw i32 %15, 1
  ret i32 %16
}

; Function Attrs: nounwind uwtable
define ptr @Gia_ManAigSynch2(ptr noundef %0, ptr noundef %1, i32 noundef %2, i32 noundef %3) #0 {
  %5 = alloca ptr, align 8
  %6 = alloca ptr, align 8
  %7 = alloca ptr, align 8
  %8 = alloca i32, align 4
  %9 = alloca i32, align 4
  %10 = alloca ptr, align 8
  %11 = alloca ptr, align 8
  %12 = alloca ptr, align 8
  %13 = alloca ptr, align 8
  %14 = alloca ptr, align 8
  %15 = alloca ptr, align 8
  %16 = alloca i32, align 4
  %17 = alloca %struct.Jf_Par_t_, align 8
  %18 = alloca ptr, align 8
  store ptr %0, ptr %6, align 8
  store ptr %1, ptr %7, align 8
  store i32 %2, ptr %8, align 4
  store i32 %3, ptr %9, align 4
  %19 = load ptr, ptr %7, align 8
  store ptr %19, ptr %10, align 8
  %20 = load ptr, ptr %10, align 8
  %21 = getelementptr inbounds %struct.Dch_Pars_t_, ptr %20, i32 0, i32 13
  %22 = load i32, ptr %21, align 4
  store i32 %22, ptr %16, align 4
  store ptr %17, ptr %18, align 8
  %23 = load ptr, ptr %18, align 8
  call void @Lf_ManSetDefaultPars(ptr noundef %23)
  %24 = load ptr, ptr %18, align 8
  %25 = getelementptr inbounds %struct.Jf_Par_t_, ptr %24, i32 0, i32 22
  store i32 1, ptr %25, align 8
  %26 = load ptr, ptr %18, align 8
  %27 = getelementptr inbounds %struct.Jf_Par_t_, ptr %26, i32 0, i32 21
  store i32 1, ptr %27, align 4
  %28 = load i32, ptr %9, align 4
  %29 = load ptr, ptr %18, align 8
  %30 = getelementptr inbounds %struct.Jf_Par_t_, ptr %29, i32 0, i32 5
  store i32 %28, ptr %30, align 4
  %31 = load ptr, ptr %18, align 8
  %32 = getelementptr inbounds %struct.Jf_Par_t_, ptr %31, i32 0, i32 7
  store i32 5, ptr %32, align 4
  %33 = load ptr, ptr %18, align 8
  %34 = getelementptr inbounds %struct.Jf_Par_t_, ptr %33, i32 0, i32 1
  store i32 12, ptr %34, align 4
  %35 = load i32, ptr %16, align 4
  %36 = load ptr, ptr %18, align 8
  %37 = getelementptr inbounds %struct.Jf_Par_t_, ptr %36, i32 0, i32 34
  store i32 %35, ptr %37, align 8
  %38 = load i32, ptr %16, align 4
  %39 = icmp ne i32 %38, 0
  br i1 %39, label %40, label %42

40:                                               ; preds = %4
  %41 = load ptr, ptr %6, align 8
  call void @Gia_ManPrintStats(ptr noundef %41, ptr noundef null)
  br label %42

42:                                               ; preds = %40, %4
  %43 = load ptr, ptr %6, align 8
  %44 = call ptr @Gia_ManDup(ptr noundef %43)
  store ptr %44, ptr %11, align 8
  %45 = load ptr, ptr %11, align 8
  %46 = call i32 @Gia_ManAndNum(ptr noundef %45)
  %47 = icmp eq i32 %46, 0
  br i1 %47, label %48, label %52

48:                                               ; preds = %42
  %49 = load ptr, ptr %11, align 8
  %50 = load ptr, ptr %6, align 8
  call void @Gia_ManTransferTiming(ptr noundef %49, ptr noundef %50)
  %51 = load ptr, ptr %11, align 8
  store ptr %51, ptr %5, align 8
  br label %209

52:                                               ; preds = %42
  %53 = load ptr, ptr %11, align 8
  %54 = getelementptr inbounds %struct.Gia_Man_t_, ptr %53, i32 0, i32 95
  %55 = load ptr, ptr %54, align 8
  %56 = icmp ne ptr %55, null
  br i1 %56, label %57, label %65

57:                                               ; preds = %52
  %58 = load ptr, ptr %11, align 8
  %59 = getelementptr inbounds %struct.Gia_Man_t_, ptr %58, i32 0, i32 21
  %60 = load ptr, ptr %59, align 8
  %61 = icmp eq ptr %60, null
  br i1 %61, label %62, label %65

62:                                               ; preds = %57
  %63 = load ptr, ptr %11, align 8
  %64 = call i32 @Gia_ManLevelWithBoxes(ptr noundef %63)
  br label %65

65:                                               ; preds = %62, %57, %52
  %66 = load ptr, ptr %6, align 8
  %67 = call i32 @Gia_ManHasMapping(ptr noundef %66)
  %68 = icmp ne i32 %67, 0
  br i1 %68, label %69, label %75

69:                                               ; preds = %65
  %70 = load ptr, ptr %11, align 8
  %71 = load ptr, ptr %6, align 8
  call void @Gia_ManTransferMapping(ptr noundef %70, ptr noundef %71)
  %72 = load ptr, ptr %11, align 8
  store ptr %72, ptr %15, align 8
  %73 = call ptr @Dsm_ManDeriveGia(ptr noundef %72, i32 noundef 0)
  store ptr %73, ptr %11, align 8
  %74 = load ptr, ptr %15, align 8
  call void @Gia_ManStop(ptr noundef %74)
  br label %75

75:                                               ; preds = %69, %65
  %76 = load ptr, ptr %11, align 8
  %77 = call i32 @Gia_ManBufNum(ptr noundef %76)
  %78 = icmp ne i32 %77, 0
  br i1 %78, label %80, label %79

79:                                               ; preds = %75
  br i1 true, label %80, label %83

80:                                               ; preds = %79, %75
  %81 = load ptr, ptr %11, align 8
  %82 = call ptr @Gia_ManAreaBalance(ptr noundef %81, i32 noundef 0, i32 noundef 1000000000, i32 noundef 0, i32 noundef 0)
  store ptr %82, ptr %12, align 8
  br label %90

83:                                               ; preds = %79
  %84 = load ptr, ptr %11, align 8
  %85 = load i32, ptr %8, align 4
  %86 = call ptr @Gia_ManLutBalance(ptr noundef %84, i32 noundef %85, i32 noundef 1, i32 noundef 1, i32 noundef 1, i32 noundef 0)
  store ptr %86, ptr %12, align 8
  %87 = load ptr, ptr %12, align 8
  store ptr %87, ptr %15, align 8
  %88 = call ptr @Gia_ManAreaBalance(ptr noundef %87, i32 noundef 0, i32 noundef 1000000000, i32 noundef 0, i32 noundef 0)
  store ptr %88, ptr %12, align 8
  %89 = load ptr, ptr %15, align 8
  call void @Gia_ManStop(ptr noundef %89)
  br label %90

90:                                               ; preds = %83, %80
  %91 = load i32, ptr %16, align 4
  %92 = icmp ne i32 %91, 0
  br i1 %92, label %93, label %95

93:                                               ; preds = %90
  %94 = load ptr, ptr %12, align 8
  call void @Gia_ManPrintStats(ptr noundef %94, ptr noundef null)
  br label %95

95:                                               ; preds = %93, %90
  %96 = load ptr, ptr %12, align 8
  store ptr %96, ptr %15, align 8
  %97 = load ptr, ptr %18, align 8
  %98 = call ptr @Lf_ManPerformMapping(ptr noundef %96, ptr noundef %97)
  store ptr %98, ptr %12, align 8
  %99 = load i32, ptr %16, align 4
  %100 = icmp ne i32 %99, 0
  br i1 %100, label %101, label %103

101:                                              ; preds = %95
  %102 = load ptr, ptr %12, align 8
  call void @Gia_ManPrintStats(ptr noundef %102, ptr noundef null)
  br label %103

103:                                              ; preds = %101, %95
  %104 = load ptr, ptr %15, align 8
  %105 = load ptr, ptr %12, align 8
  %106 = icmp ne ptr %104, %105
  br i1 %106, label %107, label %109

107:                                              ; preds = %103
  %108 = load ptr, ptr %15, align 8
  call void @Gia_ManStop(ptr noundef %108)
  br label %109

109:                                              ; preds = %107, %103
  %110 = load ptr, ptr %10, align 8
  %111 = getelementptr inbounds %struct.Dch_Pars_t_, ptr %110, i32 0, i32 11
  %112 = load i32, ptr %111, align 4
  %113 = icmp ne i32 %112, 0
  br i1 %113, label %118, label %114

114:                                              ; preds = %109
  %115 = load ptr, ptr %12, align 8
  %116 = call i32 @Gia_ManBufNum(ptr noundef %115)
  %117 = icmp ne i32 %116, 0
  br i1 %117, label %118, label %121

118:                                              ; preds = %114, %109
  %119 = load ptr, ptr %12, align 8
  %120 = call ptr @Gia_ManAreaBalance(ptr noundef %119, i32 noundef 0, i32 noundef 1000000000, i32 noundef 0, i32 noundef 0)
  store ptr %120, ptr %13, align 8
  br label %132

121:                                              ; preds = %114
  %122 = load ptr, ptr %12, align 8
  store ptr %122, ptr %15, align 8
  %123 = call ptr @Gia_ManAreaBalance(ptr noundef %122, i32 noundef 0, i32 noundef 1000000000, i32 noundef 0, i32 noundef 0)
  store ptr %123, ptr %12, align 8
  %124 = load i32, ptr %16, align 4
  %125 = icmp ne i32 %124, 0
  br i1 %125, label %126, label %128

126:                                              ; preds = %121
  %127 = load ptr, ptr %12, align 8
  call void @Gia_ManPrintStats(ptr noundef %127, ptr noundef null)
  br label %128

128:                                              ; preds = %126, %121
  %129 = load ptr, ptr %15, align 8
  call void @Gia_ManStop(ptr noundef %129)
  %130 = load ptr, ptr %12, align 8
  %131 = call ptr @Gia_ManPerformDsdBalance(ptr noundef %130, i32 noundef 6, i32 noundef 8, i32 noundef 0, i32 noundef 0)
  store ptr %131, ptr %13, align 8
  br label %132

132:                                              ; preds = %128, %118
  %133 = load i32, ptr %16, align 4
  %134 = icmp ne i32 %133, 0
  br i1 %134, label %135, label %137

135:                                              ; preds = %132
  %136 = load ptr, ptr %13, align 8
  call void @Gia_ManPrintStats(ptr noundef %136, ptr noundef null)
  br label %137

137:                                              ; preds = %135, %132
  %138 = load ptr, ptr %6, align 8
  %139 = call i32 @Gia_ManBufNum(ptr noundef %138)
  %140 = icmp ne i32 %139, 0
  br i1 %140, label %141, label %151

141:                                              ; preds = %137
  %142 = load ptr, ptr %11, align 8
  store ptr %142, ptr %15, align 8
  %143 = call ptr @Gia_ManDupFromBarBufs(ptr noundef %142)
  store ptr %143, ptr %11, align 8
  %144 = load ptr, ptr %15, align 8
  call void @Gia_ManStop(ptr noundef %144)
  %145 = load ptr, ptr %12, align 8
  store ptr %145, ptr %15, align 8
  %146 = call ptr @Gia_ManDupFromBarBufs(ptr noundef %145)
  store ptr %146, ptr %12, align 8
  %147 = load ptr, ptr %15, align 8
  call void @Gia_ManStop(ptr noundef %147)
  %148 = load ptr, ptr %13, align 8
  store ptr %148, ptr %15, align 8
  %149 = call ptr @Gia_ManDupFromBarBufs(ptr noundef %148)
  store ptr %149, ptr %13, align 8
  %150 = load ptr, ptr %15, align 8
  call void @Gia_ManStop(ptr noundef %150)
  br label %151

151:                                              ; preds = %141, %137
  %152 = load ptr, ptr %11, align 8
  %153 = load ptr, ptr %12, align 8
  %154 = load ptr, ptr %13, align 8
  %155 = load ptr, ptr %10, align 8
  %156 = call ptr @Gia_ManAigSynch2Choices(ptr noundef %152, ptr noundef %153, ptr noundef %154, ptr noundef %155)
  store ptr %156, ptr %14, align 8
  %157 = load ptr, ptr %11, align 8
  call void @Gia_ManStop(ptr noundef %157)
  %158 = load ptr, ptr %12, align 8
  call void @Gia_ManStop(ptr noundef %158)
  %159 = load ptr, ptr %13, align 8
  call void @Gia_ManStop(ptr noundef %159)
  %160 = load ptr, ptr %6, align 8
  %161 = call i32 @Gia_ManBufNum(ptr noundef %160)
  %162 = icmp ne i32 %161, 0
  br i1 %162, label %163, label %169

163:                                              ; preds = %151
  %164 = load ptr, ptr %14, align 8
  store ptr %164, ptr %15, align 8
  %165 = load ptr, ptr %6, align 8
  %166 = call i32 @Gia_ManBufNum(ptr noundef %165)
  %167 = call ptr @Gia_ManDupToBarBufs(ptr noundef %164, i32 noundef %166)
  store ptr %167, ptr %14, align 8
  %168 = load ptr, ptr %15, align 8
  call void @Gia_ManStop(ptr noundef %168)
  br label %169

169:                                              ; preds = %163, %151
  %170 = load ptr, ptr %14, align 8
  %171 = getelementptr inbounds %struct.Gia_Man_t_, ptr %170, i32 0, i32 0
  %172 = load ptr, ptr %171, align 8
  %173 = icmp ne ptr %172, null
  br i1 %173, label %174, label %180

174:                                              ; preds = %169
  %175 = load ptr, ptr %14, align 8
  %176 = getelementptr inbounds %struct.Gia_Man_t_, ptr %175, i32 0, i32 0
  %177 = load ptr, ptr %176, align 8
  call void @free(ptr noundef %177) #9
  %178 = load ptr, ptr %14, align 8
  %179 = getelementptr inbounds %struct.Gia_Man_t_, ptr %178, i32 0, i32 0
  store ptr null, ptr %179, align 8
  br label %181

180:                                              ; preds = %169
  br label %181

181:                                              ; preds = %180, %174
  %182 = load ptr, ptr %14, align 8
  %183 = getelementptr inbounds %struct.Gia_Man_t_, ptr %182, i32 0, i32 1
  %184 = load ptr, ptr %183, align 8
  %185 = icmp ne ptr %184, null
  br i1 %185, label %186, label %192

186:                                              ; preds = %181
  %187 = load ptr, ptr %14, align 8
  %188 = getelementptr inbounds %struct.Gia_Man_t_, ptr %187, i32 0, i32 1
  %189 = load ptr, ptr %188, align 8
  call void @free(ptr noundef %189) #9
  %190 = load ptr, ptr %14, align 8
  %191 = getelementptr inbounds %struct.Gia_Man_t_, ptr %190, i32 0, i32 1
  store ptr null, ptr %191, align 8
  br label %193

192:                                              ; preds = %181
  br label %193

193:                                              ; preds = %192, %186
  %194 = load ptr, ptr %6, align 8
  %195 = getelementptr inbounds %struct.Gia_Man_t_, ptr %194, i32 0, i32 0
  %196 = load ptr, ptr %195, align 8
  %197 = call ptr @Abc_UtilStrsav(ptr noundef %196)
  %198 = load ptr, ptr %14, align 8
  %199 = getelementptr inbounds %struct.Gia_Man_t_, ptr %198, i32 0, i32 0
  store ptr %197, ptr %199, align 8
  %200 = load ptr, ptr %6, align 8
  %201 = getelementptr inbounds %struct.Gia_Man_t_, ptr %200, i32 0, i32 1
  %202 = load ptr, ptr %201, align 8
  %203 = call ptr @Abc_UtilStrsav(ptr noundef %202)
  %204 = load ptr, ptr %14, align 8
  %205 = getelementptr inbounds %struct.Gia_Man_t_, ptr %204, i32 0, i32 1
  store ptr %203, ptr %205, align 8
  %206 = load ptr, ptr %14, align 8
  %207 = load ptr, ptr %6, align 8
  call void @Gia_ManTransferTiming(ptr noundef %206, ptr noundef %207)
  %208 = load ptr, ptr %14, align 8
  store ptr %208, ptr %5, align 8
  br label %209

209:                                              ; preds = %193, %48
  %210 = load ptr, ptr %5, align 8
  ret ptr %210
}