; Function Attrs: nounwind uwtable
define noundef ptr @Gia_ManAigSynch2(ptr noundef %0, ptr noundef %1, i32 noundef %2, i32 noundef %3) local_unnamed_addr #0 {
  %5 = alloca %struct.Jf_Par_t_, align 8
  %6 = getelementptr inbounds nuw i8, ptr %1, i64 52
  %7 = load i32, ptr %6, align 4
  call void @Lf_ManSetDefaultPars(ptr noundef nonnull %5) #15
  %8 = getelementptr inbounds nuw i8, ptr %5, i64 88
  store i32 1, ptr %8, align 8
  %9 = getelementptr inbounds nuw i8, ptr %5, i64 84
  store i32 1, ptr %9, align 4
  %10 = getelementptr inbounds nuw i8, ptr %5, i64 20
  store i32 %3, ptr %10, align 4
  %11 = getelementptr inbounds nuw i8, ptr %5, i64 28
  store i32 5, ptr %11, align 4
  %12 = getelementptr inbounds nuw i8, ptr %5, i64 4
  store i32 12, ptr %12, align 4
  %13 = getelementptr inbounds nuw i8, ptr %5, i64 136
  store i32 %7, ptr %13, align 8
  %.not = icmp eq i32 %7, 0
  br i1 %.not, label %15, label %14

14:                                               ; preds = %4
  call void @Gia_ManPrintStats(ptr noundef %0, ptr noundef null) #15
  br label %15

15:                                               ; preds = %14, %4
  %16 = call ptr @Gia_ManDup(ptr noundef %0) #15
  %17 = getelementptr inbounds nuw i8, ptr %16, i64 24
  %18 = load i32, ptr %17, align 8
  %19 = getelementptr inbounds nuw i8, ptr %16, i64 64
  %20 = load ptr, ptr %19, align 8
  %21 = getelementptr i8, ptr %20, i64 4
  %.val.i = load i32, ptr %21, align 4
  %22 = getelementptr inbounds nuw i8, ptr %16, i64 72
  %23 = load ptr, ptr %22, align 8
  %24 = getelementptr i8, ptr %23, i64 4
  %.val3.i = load i32, ptr %24, align 4
  %25 = add i32 %.val.i, 1
  %.neg = add i32 %25, %.val3.i
  %26 = icmp eq i32 %18, %.neg
  br i1 %26, label %95, label %27

27:                                               ; preds = %15
  %28 = getelementptr inbounds nuw i8, ptr %16, i64 736
  %29 = load ptr, ptr %28, align 8
  %.not87 = icmp eq ptr %29, null
  br i1 %.not87, label %36, label %30

30:                                               ; preds = %27
  %31 = getelementptr inbounds nuw i8, ptr %16, i64 160
  %32 = load ptr, ptr %31, align 8
  %33 = icmp eq ptr %32, null
  br i1 %33, label %34, label %36

34:                                               ; preds = %30
  %35 = call i32 @Gia_ManLevelWithBoxes(ptr noundef nonnull %16) #15
  br label %36

36:                                               ; preds = %34, %30, %27
  %37 = getelementptr i8, ptr %0, i64 264
  %.val99 = load ptr, ptr %37, align 8
  %.not102 = icmp eq ptr %.val99, null
  br i1 %.not102, label %40, label %38

38:                                               ; preds = %36
  call void @Gia_ManTransferMapping(ptr noundef nonnull %16, ptr noundef nonnull %0) #15
  %39 = call ptr @Dsm_ManDeriveGia(ptr noundef nonnull %16, i32 noundef 0) #15
  call void @Gia_ManStop(ptr noundef nonnull %16) #15
  br label %40

40:                                               ; preds = %38, %36
  %.078 = phi ptr [ %39, %38 ], [ %16, %36 ]
  %41 = call ptr @Gia_ManAreaBalance(ptr noundef %.078, i32 noundef 0, i32 noundef 1000000000, i32 noundef 0, i32 noundef 0) #15
  br i1 %.not, label %.thread, label %43

.thread:                                          ; preds = %40
  %42 = call ptr @Lf_ManPerformMapping(ptr noundef %41, ptr noundef nonnull %5) #15
  br label %45

43:                                               ; preds = %40
  call void @Gia_ManPrintStats(ptr noundef %41, ptr noundef null) #15
  %44 = call ptr @Lf_ManPerformMapping(ptr noundef %41, ptr noundef nonnull %5) #15
  call void @Gia_ManPrintStats(ptr noundef %44, ptr noundef null) #15
  br label %45

45:                                               ; preds = %.thread, %43
  %46 = phi ptr [ %42, %.thread ], [ %44, %43 ]
  %.not89 = icmp eq ptr %41, %46
  br i1 %.not89, label %48, label %47

47:                                               ; preds = %45
  call void @Gia_ManStop(ptr noundef %41) #15
  br label %48

48:                                               ; preds = %47, %45
  %49 = getelementptr inbounds nuw i8, ptr %1, i64 44
  %50 = load i32, ptr %49, align 4
  %.not90 = icmp eq i32 %50, 0
  br i1 %.not90, label %51, label %53

51:                                               ; preds = %48
  %52 = getelementptr i8, ptr %46, i64 56
  %.val98 = load i32, ptr %52, align 8
  %.not91 = icmp eq i32 %.val98, 0
  br i1 %.not91, label %55, label %53

53:                                               ; preds = %51, %48
  %54 = call ptr @Gia_ManAreaBalance(ptr noundef %46, i32 noundef 0, i32 noundef 1000000000, i32 noundef 0, i32 noundef 0) #15
  br label %60

55:                                               ; preds = %51
  %56 = call ptr @Gia_ManAreaBalance(ptr noundef nonnull %46, i32 noundef 0, i32 noundef 1000000000, i32 noundef 0, i32 noundef 0) #15
  br i1 %.not, label %58, label %57

57:                                               ; preds = %55
  call void @Gia_ManPrintStats(ptr noundef %56, ptr noundef null) #15
  br label %58

58:                                               ; preds = %57, %55
  call void @Gia_ManStop(ptr noundef nonnull %46) #15
  %59 = call ptr @Gia_ManPerformDsdBalance(ptr noundef %56, i32 noundef 6, i32 noundef 8, i32 noundef 0, i32 noundef 0) #15
  br label %60

60:                                               ; preds = %58, %53
  %.082 = phi ptr [ %46, %53 ], [ %56, %58 ]
  %.080 = phi ptr [ %54, %53 ], [ %59, %58 ]
  br i1 %.not, label %62, label %61

61:                                               ; preds = %60
  call void @Gia_ManPrintStats(ptr noundef %.080, ptr noundef null) #15
  br label %62

62:                                               ; preds = %61, %60
  %63 = getelementptr i8, ptr %0, i64 56
  %.val97 = load i32, ptr %63, align 8
  %.not92 = icmp eq i32 %.val97, 0
  br i1 %.not92, label %68, label %64

64:                                               ; preds = %62
  %65 = call ptr @Gia_ManDupFromBarBufs(ptr noundef %.078)
  call void @Gia_ManStop(ptr noundef %.078) #15
  %66 = call ptr @Gia_ManDupFromBarBufs(ptr noundef %.082)
  call void @Gia_ManStop(ptr noundef %.082) #15
  %67 = call ptr @Gia_ManDupFromBarBufs(ptr noundef %.080)
  call void @Gia_ManStop(ptr noundef %.080) #15
  br label %68

68:                                               ; preds = %64, %62
  %.183 = phi ptr [ %66, %64 ], [ %.082, %62 ]
  %.181 = phi ptr [ %67, %64 ], [ %.080, %62 ]
  %.1 = phi ptr [ %65, %64 ], [ %.078, %62 ]
  %69 = call ptr @Gia_ManAigSynch2Choices(ptr noundef %.1, ptr noundef %.183, ptr noundef %.181, ptr noundef nonnull %1)
  call void @Gia_ManStop(ptr noundef %.1) #15
  call void @Gia_ManStop(ptr noundef %.183) #15
  call void @Gia_ManStop(ptr noundef %.181) #15
  %.val96 = load i32, ptr %63, align 8
  %.not93 = icmp eq i32 %.val96, 0
  br i1 %.not93, label %72, label %70

70:                                               ; preds = %68
  %71 = call ptr @Gia_ManDupToBarBufs(ptr noundef %69, i32 noundef %.val96)
  call void @Gia_ManStop(ptr noundef %69) #15
  br label %72

72:                                               ; preds = %70, %68
  %.079 = phi ptr [ %71, %70 ], [ %69, %68 ]
  %73 = load ptr, ptr %.079, align 8
  %.not94 = icmp eq ptr %73, null
  br i1 %.not94, label %75, label %74

74:                                               ; preds = %72
  call void @free(ptr noundef nonnull %73) #15
  store ptr null, ptr %.079, align 8
  br label %75

75:                                               ; preds = %72, %74
  %76 = getelementptr inbounds nuw i8, ptr %.079, i64 8
  %77 = load ptr, ptr %76, align 8
  %.not95 = icmp eq ptr %77, null
  br i1 %.not95, label %79, label %78

78:                                               ; preds = %75
  call void @free(ptr noundef nonnull %77) #15
  store ptr null, ptr %76, align 8
  br label %79

79:                                               ; preds = %75, %78
  %80 = load ptr, ptr %0, align 8
  %.not.i = icmp eq ptr %80, null
  br i1 %.not.i, label %Abc_UtilStrsav.exit, label %81

81:                                               ; preds = %79
  %82 = call i64 @strlen(ptr noundef nonnull readonly dereferenceable(1) %80) #16
  %83 = add i64 %82, 1
  %84 = call noalias ptr @malloc(i64 noundef %83) #14
  %85 = call ptr @strcpy(ptr noundef nonnull dereferenceable(1) %84, ptr noundef nonnull readonly dereferenceable(1) %80) #15
  br label %Abc_UtilStrsav.exit

Abc_UtilStrsav.exit:                              ; preds = %79, %81
  %86 = phi ptr [ %84, %81 ], [ null, %79 ]
  store ptr %86, ptr %.079, align 8
  %87 = getelementptr inbounds nuw i8, ptr %0, i64 8
  %88 = load ptr, ptr %87, align 8
  %.not.i100 = icmp eq ptr %88, null
  br i1 %.not.i100, label %Abc_UtilStrsav.exit101, label %89

89:                                               ; preds = %Abc_UtilStrsav.exit
  %90 = call i64 @strlen(ptr noundef nonnull readonly dereferenceable(1) %88) #16
  %91 = add i64 %90, 1
  %92 = call noalias ptr @malloc(i64 noundef %91) #14
  %93 = call ptr @strcpy(ptr noundef nonnull dereferenceable(1) %92, ptr noundef nonnull readonly dereferenceable(1) %88) #15
  br label %Abc_UtilStrsav.exit101

Abc_UtilStrsav.exit101:                           ; preds = %Abc_UtilStrsav.exit, %89
  %94 = phi ptr [ %92, %89 ], [ null, %Abc_UtilStrsav.exit ]
  store ptr %94, ptr %76, align 8
  br label %95

95:                                               ; preds = %15, %Abc_UtilStrsav.exit101
  %.079.sink = phi ptr [ %.079, %Abc_UtilStrsav.exit101 ], [ %16, %15 ]
  call void @Gia_ManTransferTiming(ptr noundef nonnull %.079.sink, ptr noundef %0) #15
  ret ptr %.079.sink
}